target datalayout = "e-m:e-p270:32:32-p271:32:32-p272:64:64-i64:64-i128:128-f80:128-n8:16:32:64-S128"
target triple = "x86_64-pc-linux-gnu"

; Function Attrs: nounwind uwtable
define void @lv_gridnav_remove(ptr noundef %0) #0 {
  %2 = alloca ptr, align 8
  %3 = alloca ptr, align 8
  %4 = alloca i32, align 4
  %5 = alloca i32, align 4
  store ptr %0, ptr %2, align 8, !tbaa !3
  call void @llvm.lifetime.start.p0(i64 8, ptr %3) #3
  store ptr null, ptr %3, align 8, !tbaa !3
  call void @llvm.lifetime.start.p0(i64 4, ptr %4) #3
  %6 = load ptr, ptr %2, align 8, !tbaa !3
  %7 = call i32 @lv_obj_get_event_count(ptr noundef %6)
  store i32 %7, ptr %4, align 4, !tbaa !7
  call void @llvm.lifetime.start.p0(i64 4, ptr %5) #3
  store i32 0, ptr %5, align 4, !tbaa !7
  br label %8

8:                                                ; preds = %26, %1
  %9 = load i32, ptr %5, align 4, !tbaa !7
  %10 = load i32, ptr %4, align 4, !tbaa !7
  %11 = icmp ult i32 %9, %10
  br i1 %11, label %12, label %29

12:                                               ; preds = %8
  %13 = load ptr, ptr %2, align 8, !tbaa !3
  %14 = load i32, ptr %5, align 4, !tbaa !7
  %15 = call ptr @lv_obj_get_event_dsc(ptr noundef %13, i32 noundef %14)
  store ptr %15, ptr %3, align 8, !tbaa !3
  %16 = load ptr, ptr %3, align 8, !tbaa !3
  %17 = call ptr @lv_event_dsc_get_cb(ptr noundef %16)
  %18 = icmp eq ptr %17, @gridnav_event_cb
  br i1 %18, label %19, label %25

19:                                               ; preds = %12
  %20 = load ptr, ptr %3, align 8, !tbaa !3
  %21 = call ptr @lv_event_dsc_get_user_data(ptr noundef %20)
  call void @lv_free(ptr noundef %21)
  %22 = load ptr, ptr %2, align 8, !tbaa !3
  %23 = load i32, ptr %5, align 4, !tbaa !7
  %24 = call zeroext i1 @lv_obj_remove_event(ptr noundef %22, i32 noundef %23)
  br label %29

25:                                               ; preds = %12
  br label %26

26:                                               ; preds = %25
  %27 = load i32, ptr %5, align 4, !tbaa !7
  %28 = add i32 %27, 1
  store i32 %28, ptr %5, align 4, !tbaa !7
  br label %8, !llvm.loop !12

29:                                               ; preds = %19, %8
  call void @llvm.lifetime.end.p0(i64 4, ptr %5) #3
  call void @llvm.lifetime.end.p0(i64 4, ptr %4) #3
  call void @llvm.lifetime.end.p0(i64 8, ptr %3) #3
  ret void
}