; Function Attrs: nounwind uwtable
define void @lv_gridnav_remove(ptr noundef %0) local_unnamed_addr #0 {
  %2 = tail call i32 @lv_obj_get_event_count(ptr noundef %0) #4
  %.not = icmp eq i32 %2, 0
  br i1 %.not, label %.loopexit, label %.lr.ph

.lr.ph:                                           ; preds = %1, %9
  %.010 = phi i32 [ %10, %9 ], [ 0, %1 ]
  %3 = tail call ptr @lv_obj_get_event_dsc(ptr noundef %0, i32 noundef %.010) #4
  %4 = tail call ptr @lv_event_dsc_get_cb(ptr noundef %3) #4
  %5 = icmp eq ptr %4, @gridnav_event_cb
  br i1 %5, label %6, label %9

6:                                                ; preds = %.lr.ph
  %7 = tail call ptr @lv_event_dsc_get_user_data(ptr noundef %3) #4
  tail call void @lv_free(ptr noundef %7) #4
  %8 = tail call zeroext i1 @lv_obj_remove_event(ptr noundef %0, i32 noundef %.010) #4
  br label %.loopexit

9:                                                ; preds = %.lr.ph
  %10 = add nuw i32 %.010, 1
  %exitcond.not = icmp eq i32 %10, %2
  br i1 %exitcond.not, label %.loopexit, label %.lr.ph, !llvm.loop !3

.loopexit:                                        ; preds = %9, %1, %6
  ret void
}